ccopy_reg
_reconstructor
p1
(c__main__
NetworkDevice
p2
c__builtin__
object
p3
NtRp4
(dp5
S'uptime'
p6
S'36801002'
p7
sS'run_config_changed'
p8
I01
sS'last_changed'
p9
S'36744289'
p10
sS'device_name'
p11
S'pynet-rtr2.twb-tech.com'
p12
sb.ccopy_reg
_reconstructor
p1
(c__main__
NetworkDevice
p2
c__builtin__
object
p3
NtRp4
(dp5
S'uptime'
p6
S'36791072'
p7
sS'run_config_changed'
p8
I01
sS'last_changed'
p9
S'34842399'
p10
sS'device_name'
p11
S'pynet-rtr1.twb-tech.com'
p12
sb.